; ModuleID = '43/911.c'
source_filename = "43/911.c"
target datalayout = "e-m:e-p270:32:32-p271:32:32-p272:64:64-i64:64-f80:128-n8:16:32:64-S128"
target triple = "x86_64-pc-linux-gnu"

@.str = private unnamed_addr constant [3 x i8] c"%d\00", align 1
@.str.1 = private unnamed_addr constant [7 x i8] c"%d %d\0A\00", align 1

; Function Attrs: noinline nounwind uwtable
define dso_local i32 @main() #0 {
  %1 = alloca i32, align 4
  %2 = alloca i32, align 4
  %3 = alloca i32, align 4
  %4 = alloca i32, align 4
  %5 = alloca i32, align 4
  %6 = alloca i32, align 4
  %7 = alloca i32, align 4
  %8 = alloca i32, align 4
  %9 = alloca i32, align 4
  %10 = alloca i32, align 4
  store i32 0, i32* %1, align 4
  %11 = call i32 (i8*, ...) @__isoc99_scanf(i8* getelementptr inbounds ([3 x i8], [3 x i8]* @.str, i64 0, i64 0), i32* %2)
  store i32 3, i32* %3, align 4
  br label %12

12:                                               ; preds = %68, %0
  %13 = load i32, i32* %3, align 4
  %14 = mul nsw i32 2, %13
  %15 = load i32, i32* %2, align 4
  %16 = icmp sle i32 %14, %15
  br i1 %16, label %17, label %71

17:                                               ; preds = %12
  store i32 1, i32* %8, align 4
  store i32 1, i32* %10, align 4
  store i32 3, i32* %5, align 4
  br label %18

18:                                               ; preds = %31, %17
  %19 = load i32, i32* %5, align 4
  %20 = load i32, i32* %3, align 4
  %21 = icmp slt i32 %19, %20
  br i1 %21, label %22, label %34

22:                                               ; preds = %18
  %23 = load i32, i32* %3, align 4
  %24 = load i32, i32* %5, align 4
  %25 = srem i32 %23, %24
  %26 = icmp ne i32 %25, 0
  %27 = zext i1 %26 to i32
  store i32 %27, i32* %7, align 4
  %28 = load i32, i32* %8, align 4
  %29 = load i32, i32* %7, align 4
  %30 = mul nsw i32 %28, %29
  store i32 %30, i32* %8, align 4
  br label %31

31:                                               ; preds = %22
  %32 = load i32, i32* %5, align 4
  %33 = add nsw i32 %32, 2
  store i32 %33, i32* %5, align 4
  br label %18

34:                                               ; preds = %18
  %35 = load i32, i32* %8, align 4
  %36 = icmp ne i32 %35, 0
  br i1 %36, label %37, label %66

37:                                               ; preds = %34
  %38 = load i32, i32* %2, align 4
  %39 = load i32, i32* %3, align 4
  %40 = sub nsw i32 %38, %39
  store i32 %40, i32* %4, align 4
  store i32 3, i32* %6, align 4
  br label %41

41:                                               ; preds = %54, %37
  %42 = load i32, i32* %6, align 4
  %43 = load i32, i32* %4, align 4
  %44 = icmp slt i32 %42, %43
  br i1 %44, label %45, label %57

45:                                               ; preds = %41
  %46 = load i32, i32* %4, align 4
  %47 = load i32, i32* %6, align 4
  %48 = srem i32 %46, %47
  %49 = icmp ne i32 %48, 0
  %50 = zext i1 %49 to i32
  store i32 %50, i32* %9, align 4
  %51 = load i32, i32* %10, align 4
  %52 = load i32, i32* %9, align 4
  %53 = mul nsw i32 %51, %52
  store i32 %53, i32* %10, align 4
  br label %54

54:                                               ; preds = %45
  %55 = load i32, i32* %6, align 4
  %56 = add nsw i32 %55, 2
  store i32 %56, i32* %6, align 4
  br label %41

57:                                               ; preds = %41
  %58 = load i32, i32* %10, align 4
  %59 = icmp ne i32 %58, 0
  br i1 %59, label %60, label %64

60:                                               ; preds = %57
  %61 = load i32, i32* %3, align 4
  %62 = load i32, i32* %4, align 4
  %63 = call i32 (i8*, ...) @printf(i8* getelementptr inbounds ([7 x i8], [7 x i8]* @.str.1, i64 0, i64 0), i32 %61, i32 %62)
  br label %65

64:                                               ; preds = %57
  br label %68

65:                                               ; preds = %60
  br label %67

66:                                               ; preds = %34
  br label %68

67:                                               ; preds = %65
  br label %68

68:                                               ; preds = %67, %66, %64
  %69 = load i32, i32* %3, align 4
  %70 = add nsw i32 %69, 2
  store i32 %70, i32* %3, align 4
  br label %12

71:                                               ; preds = %12
  ret i32 0
}

declare dso_local i32 @__isoc99_scanf(i8*, ...) #1

declare dso_local i32 @printf(i8*, ...) #1


!llvm.module.flags = !{!0}
!llvm.ident = !{!1}

!0 = !{i32 1, !"wchar_size", i32 4}
!1 = !{!"clang version 10.0.0-4ubuntu1 "}
